target datalayout = "e-m:e-p270:32:32-p271:32:32-p272:64:64-i64:64-i128:128-f80:128-n8:16:32:64-S128"
target triple = "x86_64-pc-linux-gnu"

%class.BigInteger = type { i32, %class.BigUnsigned }
%class.BigUnsigned = type { %class.NumberlikeArray }
%class.NumberlikeArray = type { i32, i32, ptr }

@_ZTIPKc = external constant ptr
@.str.8 = private unnamed_addr constant [73 x i8] c"BigInteger::to<Primitive>: Value is too big to fit in the requested type\00", align 1

; Function Attrs: mustprogress nounwind uwtable
define linkonce_odr noundef i64 @_ZNK11BigUnsigned8getBlockEj(ptr noundef nonnull align 8 dereferenceable(16) %0, i32 noundef %1) #1 comdat align 2 {
  %3 = alloca ptr, align 8
  %4 = alloca i32, align 4
  store ptr %0, ptr %3, align 8, !tbaa !18
  store i32 %1, ptr %4, align 4, !tbaa !21
  %5 = load ptr, ptr %3, align 8
  %6 = load i32, ptr %4, align 4, !tbaa !21
  %7 = getelementptr inbounds nuw %class.NumberlikeArray, ptr %5, i32 0, i32 1
  %8 = load i32, ptr %7, align 4, !tbaa !32
  %9 = icmp uge i32 %6, %8
  br i1 %9, label %10, label %11

10:                                               ; preds = %2
  br label %18

11:                                               ; preds = %2
  %12 = getelementptr inbounds nuw %class.NumberlikeArray, ptr %5, i32 0, i32 2
  %13 = load ptr, ptr %12, align 8, !tbaa !27
  %14 = load i32, ptr %4, align 4, !tbaa !21
  %15 = zext i32 %14 to i64
  %16 = getelementptr inbounds nuw i64, ptr %13, i64 %15
  %17 = load i64, ptr %16, align 8, !tbaa !28
  br label %18

18:                                               ; preds = %11, %10
  %19 = phi i64 [ 0, %10 ], [ %17, %11 ]
  ret i64 %19
}

; Function Attrs: mustprogress nounwind uwtable
define linkonce_odr noundef i32 @_ZNK15NumberlikeArrayImE9getLengthEv(ptr noundef nonnull align 8 dereferenceable(16) %0) #1 comdat align 2 {
  %2 = alloca ptr, align 8
  store ptr %0, ptr %2, align 8, !tbaa !25
  %3 = load ptr, ptr %2, align 8
  %4 = getelementptr inbounds nuw %class.NumberlikeArray, ptr %3, i32 0, i32 1
  %5 = load i32, ptr %4, align 4, !tbaa !32
  ret i32 %5
}

; Function Attrs: mustprogress uwtable
define linkonce_odr noundef signext i16 @_ZNK10BigInteger24convertToSignedPrimitiveIstEET_v(ptr noundef nonnull align 8 dereferenceable(24) %0) #0 comdat align 2 {
  %2 = alloca i16, align 2
  %3 = alloca ptr, align 8
  %4 = alloca i64, align 8
  %5 = alloca i16, align 2
  %6 = alloca i32, align 4
  %7 = alloca i16, align 2
  store ptr %0, ptr %3, align 8, !tbaa !6
  %8 = load ptr, ptr %3, align 8
  %9 = getelementptr inbounds nuw %class.BigInteger, ptr %8, i32 0, i32 0
  %10 = load i32, ptr %9, align 8, !tbaa !11
  %11 = icmp eq i32 %10, 0
  br i1 %11, label %12, label %13

12:                                               ; preds = %1
  store i16 0, ptr %2, align 2
  br label %70

13:                                               ; preds = %1
  %14 = getelementptr inbounds nuw %class.BigInteger, ptr %8, i32 0, i32 1
  %15 = call noundef i32 @_ZNK15NumberlikeArrayImE9getLengthEv(ptr noundef nonnull align 8 dereferenceable(16) %14)
  %16 = icmp eq i32 %15, 1
  br i1 %16, label %17, label %67

17:                                               ; preds = %13
  call void @llvm.lifetime.start.p0(i64 8, ptr %4) #9
  %18 = getelementptr inbounds nuw %class.BigInteger, ptr %8, i32 0, i32 1
  %19 = call noundef i64 @_ZNK11BigUnsigned8getBlockEj(ptr noundef nonnull align 8 dereferenceable(16) %18, i32 noundef 0)
  store i64 %19, ptr %4, align 8, !tbaa !28
  %20 = getelementptr inbounds nuw %class.BigInteger, ptr %8, i32 0, i32 0
  %21 = load i32, ptr %20, align 8, !tbaa !11
  %22 = icmp eq i32 %21, 1
  br i1 %22, label %23, label %40

23:                                               ; preds = %17
  call void @llvm.lifetime.start.p0(i64 2, ptr %5) #9
  %24 = load i64, ptr %4, align 8, !tbaa !28
  %25 = trunc i64 %24 to i16
  store i16 %25, ptr %5, align 2, !tbaa !30
  %26 = load i16, ptr %5, align 2, !tbaa !30
  %27 = sext i16 %26 to i32
  %28 = icmp sge i32 %27, 0
  br i1 %28, label %29, label %36

29:                                               ; preds = %23
  %30 = load i16, ptr %5, align 2, !tbaa !30
  %31 = sext i16 %30 to i64
  %32 = load i64, ptr %4, align 8, !tbaa !28
  %33 = icmp eq i64 %31, %32
  br i1 %33, label %34, label %36

34:                                               ; preds = %29
  %35 = load i16, ptr %5, align 2, !tbaa !30
  store i16 %35, ptr %2, align 2
  store i32 1, ptr %6, align 4
  br label %37

36:                                               ; preds = %29, %23
  store i32 0, ptr %6, align 4
  br label %37

37:                                               ; preds = %36, %34
  call void @llvm.lifetime.end.p0(i64 2, ptr %5) #9
  %38 = load i32, ptr %6, align 4
  switch i32 %38, label %64 [
    i32 0, label %39
  ]

39:                                               ; preds = %37
  br label %63

40:                                               ; preds = %17
  call void @llvm.lifetime.start.p0(i64 2, ptr %7) #9
  %41 = load i64, ptr %4, align 8, !tbaa !28
  %42 = trunc i64 %41 to i16
  %43 = sext i16 %42 to i32
  %44 = sub nsw i32 0, %43
  %45 = trunc i32 %44 to i16
  store i16 %45, ptr %7, align 2, !tbaa !30
  %46 = load i16, ptr %7, align 2, !tbaa !30
  %47 = sext i16 %46 to i32
  %48 = icmp slt i32 %47, 0
  br i1 %48, label %49, label %59

49:                                               ; preds = %40
  %50 = load i16, ptr %7, align 2, !tbaa !30
  %51 = sext i16 %50 to i32
  %52 = sub nsw i32 0, %51
  %53 = trunc i32 %52 to i16
  %54 = zext i16 %53 to i64
  %55 = load i64, ptr %4, align 8, !tbaa !28
  %56 = icmp eq i64 %54, %55
  br i1 %56, label %57, label %59

57:                                               ; preds = %49
  %58 = load i16, ptr %7, align 2, !tbaa !30
  store i16 %58, ptr %2, align 2
  store i32 1, ptr %6, align 4
  br label %60

59:                                               ; preds = %49, %40
  store i32 0, ptr %6, align 4
  br label %60

60:                                               ; preds = %59, %57
  call void @llvm.lifetime.end.p0(i64 2, ptr %7) #9
  %61 = load i32, ptr %6, align 4
  switch i32 %61, label %64 [
    i32 0, label %62
  ]

62:                                               ; preds = %60
  br label %63

63:                                               ; preds = %62, %39
  store i32 0, ptr %6, align 4
  br label %64

64:                                               ; preds = %63, %60, %37
  call void @llvm.lifetime.end.p0(i64 8, ptr %4) #9
  %65 = load i32, ptr %6, align 4
  switch i32 %65, label %72 [
    i32 0, label %66
    i32 1, label %70
  ]

66:                                               ; preds = %64
  br label %67

67:                                               ; preds = %66, %13
  br label %68

68:                                               ; preds = %67
  %69 = call ptr @__cxa_allocate_exception(i64 8) #9
  store ptr @.str.8, ptr %69, align 16, !tbaa !23
  call void @__cxa_throw(ptr %69, ptr @_ZTIPKc, ptr null) #10
  unreachable

70:                                               ; preds = %64, %12
  %71 = load i16, ptr %2, align 2
  ret i16 %71

72:                                               ; preds = %64
  unreachable
}

; Function Attrs: mustprogress uwtable
define noundef signext i16 @_ZNK10BigInteger7toShortEv(ptr noundef nonnull align 8 dereferenceable(24) %0) #0 align 2 {
  %2 = alloca ptr, align 8
  store ptr %0, ptr %2, align 8, !tbaa !6
  %3 = load ptr, ptr %2, align 8
  %4 = call noundef signext i16 @_ZNK10BigInteger24convertToSignedPrimitiveIstEET_v(ptr noundef nonnull align 8 dereferenceable(24) %3)
  ret i16 %4
}